Certificate:
    Data:
        Version: 3 (0x2)
        Serial Number: 1 (0x1)
        Signature Algorithm: sha1WithRSAEncryption
        Issuer: C=AU, ST=Some-State, O=Internet Widgits Pty Ltd, CN=Demo CA
        Validity
            Not Before: May 13 12:23:39 2010 GMT
            Not After : May 10 12:23:39 2020 GMT
        Subject: C=AU, ST=Some-State, O=Internet Widgits Pty Ltd, CN=Demo 1
        Subject Public Key Info:
            Public Key Algorithm: rsaEncryption
            RSA Public Key: (1024 bit)
                Modulus (1024 bit):
                    00:b3:86:f8:cc:2a:64:39:b6:81:de:90:c3:89:d4:
                    3e:bd:13:c8:9f:d5:73:a6:73:33:09:c7:40:7e:9c:
                    a9:0f:f4:7e:72:cc:00:1b:cd:12:db:24:46:89:49:
                    fc:d0:32:47:8e:98:55:6b:a4:ac:5f:6a:e6:f0:35:
                    d6:c2:f9:a7:6d:3b:fe:8b:80:38:44:bd:d7:de:6c:
                    00:04:ee:87:c1:85:4e:86:cd:3a:b5:f3:99:0a:20:
                    df:14:10:e8:af:69:6c:2f:1a:6f:34:b4:a5:d2:8a:
                    e4:c4:dc:e8:b9:18:36:66:80:2e:96:47:d3:46:71:
                    b9:b1:a4:30:e8:d5:7c:79:73
                Exponent: 65537 (0x10001)
        X509v3 extensions:
            X509v3 Basic Constraints: 
                CA:FALSE
            Netscape Comment: 
                OpenSSL Generated Certificate
            X509v3 Subject Key Identifier: 
                E2:96:8D:FA:D9:D1:E6:C3:01:BC:D6:8D:B4:20:00:7D:8F:A1:47:D7
            X509v3 Authority Key Identifier: 
                keyid:16:FA:A3:76:09:FD:7B:AC:36:3E:C3:F2:0A:34:E2:5C:58:3E:BC:DF

    Signature Algorithm: sha1WithRSAEncryption
        9e:79:8f:76:e6:d9:f5:05:29:bf:e2:30:d4:87:c0:e1:1b:4a:
        b3:c5:a2:28:76:1e:9e:47:92:43:2a:27:65:29:f6:4e:ef:7c:
        8a:5f:80:28:73:d2:60:70:25:ea:c6:4d:4a:fe:3a:d4:e3:51:
        5a:f1:26:24:69:27:e4:df:fc:cf:0c:82:d9:8a:4d:d7:e1:fc:
        9e:07:0e:41:a9:cd:e3:d5:49:8f:bd:bb:49:83:4c:f5:0b:8e:
        eb:df:b0:70:46:e6:3f:a0:2a:66:8e:36:b0:09:51:66:55:6f:
        1e:20:15:b3:43:60:52:c3:64:79:9f:6f:34:3a:b8:24:69:1a:
        c1:28
-----BEGIN CERTIFICATE-----
MIICnjCCAgegAwIBAgIBATANBgkqhkiG9w0BAQUFADBXMQswCQYDVQQGEwJBVTET
MBEGA1UECBMKU29tZS1TdGF0ZTEhMB8GA1UEChMYSW50ZXJuZXQgV2lkZ2l0cyBQ
dHkgTHRkMRAwDgYDVQQDEwdEZW1vIENBMB4XDTEwMDUxMzEyMjMzOVoXDTIwMDUx
MDEyMjMzOVowVjELMAkGA1UEBhMCQVUxEzARBgNVBAgTClNvbWUtU3RhdGUxITAf
BgNVBAoTGEludGVybmV0IFdpZGdpdHMgUHR5IEx0ZDEPMA0GA1UEAxMGRGVtbyAx
MIGfMA0GCSqGSIb3DQEBAQUAA4GNADCBiQKBgQCzhvjMKmQ5toHekMOJ1D69E8if
1XOmczMJx0B+nKkP9H5yzAAbzRLbJEaJSfzQMkeOmFVrpKxfaubwNdbC+adtO/6L
gDhEvdfebAAE7ofBhU6GzTq185kKIN8UEOivaWwvGm80tKXSiuTE3Oi5GDZmgC6W
R9NGcbmxpDDo1Xx5cwIDAQABo3sweTAJBgNVHRMEAjAAMCwGCWCGSAGG+EIBDQQf
Fh1PcGVuU1NMIEdlbmVyYXRlZCBDZXJ0aWZpY2F0ZTAdBgNVHQ4EFgQU4paN+tnR
5sMBvNaNtCAAfY+hR9cwHwYDVR0jBBgwFoAUFvqjdgn9e6w2PsPyCjTiXFg+vN8w
DQYJKoZIhvcNAQEFBQADgYEAnnmPdubZ9QUpv+Iw1IfA4RtKs8WiKHYenkeSQyon
ZSn2Tu98il+AKHPSYHAl6sZNSv461ONRWvEmJGkn5N/8zwyC2YpN1+H8ngcOQanN
49VJj727SYNM9QuO69+wcEbmP6AqZo42sAlRZlVvHiAVs0NgUsNkeZ9vNDq4JGka
wSg=
-----END CERTIFICATE-----
