Certificate:
    Data:
        Version: 3 (0x2)
        Serial Number: 2 (0x2)
        Signature Algorithm: sha1WithRSAEncryption
        Issuer: C=AU, ST=Some-State, O=Internet Widgits Pty Ltd, CN=Demo CA
        Validity
            Not Before: May 13 12:29:24 2010 GMT
            Not After : May 10 12:29:24 2020 GMT
        Subject: C=AU, ST=Some-State, O=Internet Widgits Pty Ltd, CN=Demo 2 one-degree CA
        Subject Public Key Info:
            Public Key Algorithm: rsaEncryption
            RSA Public Key: (1024 bit)
                Modulus (1024 bit):
                    00:a3:12:48:40:c3:62:f9:30:89:a2:29:03:0f:28:
                    cb:de:c9:f6:4d:38:eb:00:e7:79:98:e2:61:b4:19:
                    7e:43:c4:24:3a:77:55:97:23:55:42:c4:a8:91:cc:
                    0d:95:76:f9:72:93:5e:f8:23:5e:ad:70:ee:0f:a9:
                    45:95:a0:98:b1:be:e9:bc:af:27:b4:64:27:7a:1c:
                    16:df:82:50:2e:0b:c5:a3:aa:71:a2:92:16:9d:c0:
                    d2:a5:62:1d:c0:53:5e:68:88:c7:9d:e7:c0:37:98:
                    50:a0:eb:37:36:c2:5f:ba:18:61:70:5a:85:94:ba:
                    46:a0:e6:7a:e6:38:7e:3e:55
                Exponent: 65537 (0x10001)
        X509v3 extensions:
            X509v3 Subject Key Identifier: 
                07:6A:58:BF:96:68:B8:3B:4A:6F:31:90:F3:1B:CD:EC:BE:10:AF:F9
            X509v3 Authority Key Identifier: 
                keyid:16:FA:A3:76:09:FD:7B:AC:36:3E:C3:F2:0A:34:E2:5C:58:3E:BC:DF
                DirName:/C=AU/ST=Some-State/O=Internet Widgits Pty Ltd/CN=Demo CA
                serial:00

            X509v3 Basic Constraints: 
                CA:TRUE
    Signature Algorithm: sha1WithRSAEncryption
        a2:6e:08:e5:4b:a3:4d:08:fe:e2:9e:9a:8a:5b:02:05:dc:20:
        31:4c:c5:34:30:ec:c8:30:1d:b8:81:a7:71:28:01:54:62:e9:
        4d:fd:f6:c4:53:fc:d7:24:7d:f8:44:83:4b:5d:71:15:20:2f:
        b3:eb:8e:73:06:42:66:fb:01:0f:66:50:24:d4:06:10:68:a6:
        21:38:bd:68:23:0d:8f:14:9d:8f:ad:9d:92:60:80:6d:47:72:
        7c:c3:76:f4:0d:e9:61:66:8b:c2:53:5c:73:05:d7:c3:da:b0:
        77:33:54:0e:5b:14:91:f4:8b:2d:fd:d3:fb:10:88:9e:29:a6:
        ee:fa
-----BEGIN CERTIFICATE-----
MIIC4zCCAkygAwIBAgIBAjANBgkqhkiG9w0BAQUFADBXMQswCQYDVQQGEwJBVTET
MBEGA1UECBMKU29tZS1TdGF0ZTEhMB8GA1UEChMYSW50ZXJuZXQgV2lkZ2l0cyBQ
dHkgTHRkMRAwDgYDVQQDEwdEZW1vIENBMB4XDTEwMDUxMzEyMjkyNFoXDTIwMDUx
MDEyMjkyNFowZDELMAkGA1UEBhMCQVUxEzARBgNVBAgTClNvbWUtU3RhdGUxITAf
BgNVBAoTGEludGVybmV0IFdpZGdpdHMgUHR5IEx0ZDEdMBsGA1UEAxMURGVtbyAy
IG9uZS1kZWdyZWUgQ0EwgZ8wDQYJKoZIhvcNAQEBBQADgY0AMIGJAoGBAKMSSEDD
YvkwiaIpAw8oy97J9k046wDneZjiYbQZfkPEJDp3VZcjVULEqJHMDZV2+XKTXvgj
Xq1w7g+pRZWgmLG+6byvJ7RkJ3ocFt+CUC4LxaOqcaKSFp3A0qViHcBTXmiIx53n
wDeYUKDrNzbCX7oYYXBahZS6RqDmeuY4fj5VAgMBAAGjgbEwga4wHQYDVR0OBBYE
FAdqWL+WaLg7Sm8xkPMbzey+EK/5MH8GA1UdIwR4MHaAFBb6o3YJ/XusNj7D8go0
4lxYPrzfoVukWTBXMQswCQYDVQQGEwJBVTETMBEGA1UECBMKU29tZS1TdGF0ZTEh
MB8GA1UEChMYSW50ZXJuZXQgV2lkZ2l0cyBQdHkgTHRkMRAwDgYDVQQDEwdEZW1v
IENBggEAMAwGA1UdEwQFMAMBAf8wDQYJKoZIhvcNAQEFBQADgYEAom4I5UujTQj+
4p6ailsCBdwgMUzFNDDsyDAduIGncSgBVGLpTf32xFP81yR9+ESDS11xFSAvs+uO
cwZCZvsBD2ZQJNQGEGimITi9aCMNjxSdj62dkmCAbUdyfMN29A3pYWaLwlNccwXX
w9qwdzNUDlsUkfSLLf3T+xCInimm7vo=
-----END CERTIFICATE-----
