Certificate:
    Data:
        Version: 3 (0x2)
        Serial Number: 0 (0x0)
        Signature Algorithm: sha1WithRSAEncryption
        Issuer: C=AU, ST=Some-State, O=Internet Widgits Pty Ltd, CN=Demo CA
        Validity
            Not Before: May 12 15:04:00 2010 GMT
            Not After : May 11 15:04:00 2013 GMT
        Subject: C=AU, ST=Some-State, O=Internet Widgits Pty Ltd, CN=Demo CA
        Subject Public Key Info:
            Public Key Algorithm: rsaEncryption
            RSA Public Key: (1024 bit)
                Modulus (1024 bit):
                    00:ab:57:e8:74:c5:51:9f:5c:81:38:8b:cf:90:ac:
                    45:82:d6:bf:31:5e:82:1f:87:e5:51:b7:54:29:fc:
                    18:f6:54:b0:21:aa:05:f1:52:73:17:30:01:7a:9e:
                    a4:78:0a:d5:f2:c7:14:a2:2c:d4:8a:d4:7e:aa:f6:
                    51:e5:db:ea:17:cb:61:71:fb:5e:cf:92:70:a3:06:
                    b7:d0:36:ec:81:2b:4e:87:3c:90:15:66:7d:50:70:
                    72:19:13:11:4b:22:35:d2:8e:de:f3:34:d3:b8:76:
                    72:05:9e:06:49:35:d4:3a:95:4e:b0:78:ee:1b:87:
                    10:15:d1:d1:1c:6d:f1:f0:35
                Exponent: 65537 (0x10001)
        X509v3 extensions:
            X509v3 Subject Key Identifier: 
                16:FA:A3:76:09:FD:7B:AC:36:3E:C3:F2:0A:34:E2:5C:58:3E:BC:DF
            X509v3 Authority Key Identifier: 
                keyid:16:FA:A3:76:09:FD:7B:AC:36:3E:C3:F2:0A:34:E2:5C:58:3E:BC:DF
                DirName:/C=AU/ST=Some-State/O=Internet Widgits Pty Ltd/CN=Demo CA
                serial:00

            X509v3 Basic Constraints: 
                CA:TRUE
    Signature Algorithm: sha1WithRSAEncryption
        06:a3:2f:01:c8:ef:10:ea:a8:54:38:46:5f:a5:90:dc:48:54:
        10:1a:0c:df:b7:1e:af:36:bd:40:56:c5:e6:01:80:4b:7a:8b:
        1c:7b:4a:55:c9:75:61:6d:2c:cc:10:ab:90:4c:af:2a:7e:a2:
        db:98:1b:71:92:f7:46:8b:d9:10:43:e3:4b:75:99:2a:79:90:
        75:24:8d:9e:b6:6b:a7:d1:2b:21:c2:f4:d8:17:87:81:4d:34:
        ac:0b:1e:ff:4b:13:16:52:f2:10:47:1f:46:85:70:31:74:9d:
        38:95:76:fb:f1:81:71:5d:b7:ce:fa:26:26:dc:6b:69:1d:1f:
        d3:c9
-----BEGIN CERTIFICATE-----
MIIC1jCCAj+gAwIBAgIBADANBgkqhkiG9w0BAQUFADBXMQswCQYDVQQGEwJBVTET
MBEGA1UECBMKU29tZS1TdGF0ZTEhMB8GA1UEChMYSW50ZXJuZXQgV2lkZ2l0cyBQ
dHkgTHRkMRAwDgYDVQQDEwdEZW1vIENBMB4XDTEwMDUxMjE1MDQwMFoXDTEzMDUx
MTE1MDQwMFowVzELMAkGA1UEBhMCQVUxEzARBgNVBAgTClNvbWUtU3RhdGUxITAf
BgNVBAoTGEludGVybmV0IFdpZGdpdHMgUHR5IEx0ZDEQMA4GA1UEAxMHRGVtbyBD
QTCBnzANBgkqhkiG9w0BAQEFAAOBjQAwgYkCgYEAq1fodMVRn1yBOIvPkKxFgta/
MV6CH4flUbdUKfwY9lSwIaoF8VJzFzABep6keArV8scUoizUitR+qvZR5dvqF8th
cftez5Jwowa30DbsgStOhzyQFWZ9UHByGRMRSyI10o7e8zTTuHZyBZ4GSTXUOpVO
sHjuG4cQFdHRHG3x8DUCAwEAAaOBsTCBrjAdBgNVHQ4EFgQUFvqjdgn9e6w2PsPy
CjTiXFg+vN8wfwYDVR0jBHgwdoAUFvqjdgn9e6w2PsPyCjTiXFg+vN+hW6RZMFcx
CzAJBgNVBAYTAkFVMRMwEQYDVQQIEwpTb21lLVN0YXRlMSEwHwYDVQQKExhJbnRl
cm5ldCBXaWRnaXRzIFB0eSBMdGQxEDAOBgNVBAMTB0RlbW8gQ0GCAQAwDAYDVR0T
BAUwAwEB/zANBgkqhkiG9w0BAQUFAAOBgQAGoy8ByO8Q6qhUOEZfpZDcSFQQGgzf
tx6vNr1AVsXmAYBLeosce0pVyXVhbSzMEKuQTK8qfqLbmBtxkvdGi9kQQ+NLdZkq
eZB1JI2etmun0SshwvTYF4eBTTSsCx7/SxMWUvIQRx9GhXAxdJ04lXb78YFxXbfO
+iYm3GtpHR/TyQ==
-----END CERTIFICATE-----
